; ModuleID = '19/3078.c'
source_filename = "19/3078.c"
target datalayout = "e-m:e-p270:32:32-p271:32:32-p272:64:64-i64:64-f80:128-n8:16:32:64-S128"
target triple = "x86_64-pc-linux-gnu"

@.str = private unnamed_addr constant [3 x i8] c"%s\00", align 1
@.str.1 = private unnamed_addr constant [3 x i8] c"%c\00", align 1

; Function Attrs: noinline nounwind uwtable
define dso_local i32 @main() #0 {
  %1 = alloca i32, align 4
  %2 = alloca [100 x i8], align 16
  %3 = alloca [100 x i8], align 16
  %4 = alloca [100 x i8], align 16
  %5 = alloca i32, align 4
  %6 = alloca i32, align 4
  %7 = alloca i32, align 4
  store i32 0, i32* %1, align 4
  %8 = getelementptr inbounds [100 x i8], [100 x i8]* %2, i64 0, i64 0
  %9 = call i32 (i8*, ...) bitcast (i32 (...)* @gets to i32 (i8*, ...)*)(i8* %8)
  %10 = getelementptr inbounds [100 x i8], [100 x i8]* %3, i64 0, i64 0
  %11 = call i32 (i8*, ...) bitcast (i32 (...)* @gets to i32 (i8*, ...)*)(i8* %10)
  %12 = getelementptr inbounds [100 x i8], [100 x i8]* %4, i64 0, i64 0
  %13 = call i32 (i8*, ...) bitcast (i32 (...)* @gets to i32 (i8*, ...)*)(i8* %12)
  store i32 0, i32* %5, align 4
  br label %14

14:                                               ; preds = %107, %0
  %15 = load i32, i32* %5, align 4
  %16 = sext i32 %15 to i64
  %17 = getelementptr inbounds [100 x i8], [100 x i8]* %2, i64 0, i64 0
  %18 = call i64 @strlen(i8* %17) #3
  %19 = icmp ult i64 %16, %18
  br i1 %19, label %20, label %110

20:                                               ; preds = %14
  %21 = load i32, i32* %5, align 4
  %22 = sext i32 %21 to i64
  %23 = getelementptr inbounds [100 x i8], [100 x i8]* %2, i64 0, i64 %22
  %24 = load i8, i8* %23, align 1
  %25 = sext i8 %24 to i32
  %26 = getelementptr inbounds [100 x i8], [100 x i8]* %3, i64 0, i64 0
  %27 = load i8, i8* %26, align 16
  %28 = sext i8 %27 to i32
  %29 = icmp eq i32 %25, %28
  br i1 %29, label %30, label %100

30:                                               ; preds = %20
  %31 = load i32, i32* %5, align 4
  %32 = sub nsw i32 %31, 1
  %33 = sext i32 %32 to i64
  %34 = getelementptr inbounds [100 x i8], [100 x i8]* %2, i64 0, i64 %33
  %35 = load i8, i8* %34, align 1
  %36 = sext i8 %35 to i32
  %37 = icmp eq i32 %36, 32
  br i1 %37, label %41, label %38

38:                                               ; preds = %30
  %39 = load i32, i32* %5, align 4
  %40 = icmp eq i32 %39, 0
  br i1 %40, label %41, label %100

41:                                               ; preds = %38, %30
  %42 = load i32, i32* %5, align 4
  %43 = sext i32 %42 to i64
  %44 = getelementptr inbounds [100 x i8], [100 x i8]* %3, i64 0, i64 0
  %45 = call i64 @strlen(i8* %44) #3
  %46 = add i64 %43, %45
  %47 = getelementptr inbounds [100 x i8], [100 x i8]* %2, i64 0, i64 %46
  %48 = load i8, i8* %47, align 1
  %49 = sext i8 %48 to i32
  %50 = icmp eq i32 %49, 32
  br i1 %50, label %60, label %51

51:                                               ; preds = %41
  %52 = load i32, i32* %5, align 4
  %53 = sext i32 %52 to i64
  %54 = getelementptr inbounds [100 x i8], [100 x i8]* %3, i64 0, i64 0
  %55 = call i64 @strlen(i8* %54) #3
  %56 = add i64 %53, %55
  %57 = getelementptr inbounds [100 x i8], [100 x i8]* %2, i64 0, i64 0
  %58 = call i64 @strlen(i8* %57) #3
  %59 = icmp eq i64 %56, %58
  br i1 %59, label %60, label %100

60:                                               ; preds = %51, %41
  store i32 0, i32* %6, align 4
  store i32 0, i32* %7, align 4
  br label %61

61:                                               ; preds = %83, %60
  %62 = load i32, i32* %7, align 4
  %63 = sext i32 %62 to i64
  %64 = getelementptr inbounds [100 x i8], [100 x i8]* %3, i64 0, i64 0
  %65 = call i64 @strlen(i8* %64) #3
  %66 = icmp ult i64 %63, %65
  br i1 %66, label %67, label %86

67:                                               ; preds = %61
  %68 = load i32, i32* %7, align 4
  %69 = load i32, i32* %5, align 4
  %70 = add nsw i32 %68, %69
  %71 = sext i32 %70 to i64
  %72 = getelementptr inbounds [100 x i8], [100 x i8]* %2, i64 0, i64 %71
  %73 = load i8, i8* %72, align 1
  %74 = sext i8 %73 to i32
  %75 = load i32, i32* %7, align 4
  %76 = sext i32 %75 to i64
  %77 = getelementptr inbounds [100 x i8], [100 x i8]* %3, i64 0, i64 %76
  %78 = load i8, i8* %77, align 1
  %79 = sext i8 %78 to i32
  %80 = icmp ne i32 %74, %79
  br i1 %80, label %81, label %82

81:                                               ; preds = %67
  store i32 1, i32* %6, align 4
  br label %86

82:                                               ; preds = %67
  br label %83

83:                                               ; preds = %82
  %84 = load i32, i32* %7, align 4
  %85 = add nsw i32 %84, 1
  store i32 %85, i32* %7, align 4
  br label %61

86:                                               ; preds = %81, %61
  %87 = load i32, i32* %6, align 4
  %88 = icmp eq i32 %87, 0
  br i1 %88, label %89, label %99

89:                                               ; preds = %86
  %90 = getelementptr inbounds [100 x i8], [100 x i8]* %4, i64 0, i64 0
  %91 = call i32 (i8*, ...) @printf(i8* getelementptr inbounds ([3 x i8], [3 x i8]* @.str, i64 0, i64 0), i8* %90)
  %92 = getelementptr inbounds [100 x i8], [100 x i8]* %3, i64 0, i64 0
  %93 = call i64 @strlen(i8* %92) #3
  %94 = sub i64 %93, 1
  %95 = load i32, i32* %5, align 4
  %96 = sext i32 %95 to i64
  %97 = add i64 %96, %94
  %98 = trunc i64 %97 to i32
  store i32 %98, i32* %5, align 4
  br label %107

99:                                               ; preds = %86
  br label %100

100:                                              ; preds = %99, %51, %38, %20
  %101 = load i32, i32* %5, align 4
  %102 = sext i32 %101 to i64
  %103 = getelementptr inbounds [100 x i8], [100 x i8]* %2, i64 0, i64 %102
  %104 = load i8, i8* %103, align 1
  %105 = sext i8 %104 to i32
  %106 = call i32 (i8*, ...) @printf(i8* getelementptr inbounds ([3 x i8], [3 x i8]* @.str.1, i64 0, i64 0), i32 %105)
  br label %107

107:                                              ; preds = %100, %89
  %108 = load i32, i32* %5, align 4
  %109 = add nsw i32 %108, 1
  store i32 %109, i32* %5, align 4
  br label %14

110:                                              ; preds = %14
  ret i32 0
}

declare dso_local i32 @gets(...) #1

; Function Attrs: nounwind readonly
declare dso_local i64 @strlen(i8*) #2

declare dso_local i32 @printf(i8*, ...) #1


!llvm.module.flags = !{!0}
!llvm.ident = !{!1}

!0 = !{i32 1, !"wchar_size", i32 4}
!1 = !{!"clang version 10.0.0-4ubuntu1 "}
