; ModuleID = 'source-C-CXX/18/3078.c'
source_filename = "source-C-CXX/18/3078.c"
target datalayout = "e-m:e-p270:32:32-p271:32:32-p272:64:64-i64:64-f80:128-n8:16:32:64-S128"
target triple = "x86_64-pc-linux-gnu"

@.str = private unnamed_addr constant [3 x i8] c"%s\00", align 1

; Function Attrs: nounwind sspstrong uwtable
define dso_local i32 @main() local_unnamed_addr #0 {
  %1 = alloca [100 x i8], align 16
  %2 = alloca [100 x i8], align 16
  %3 = alloca [100 x i8], align 16
  %4 = getelementptr inbounds [100 x i8], [100 x i8]* %1, i64 0, i64 0
  call void @llvm.lifetime.start.p0i8(i64 100, i8* nonnull %4) #6
  %5 = getelementptr inbounds [100 x i8], [100 x i8]* %2, i64 0, i64 0
  call void @llvm.lifetime.start.p0i8(i64 100, i8* nonnull %5) #6
  %6 = getelementptr inbounds [100 x i8], [100 x i8]* %3, i64 0, i64 0
  call void @llvm.lifetime.start.p0i8(i64 100, i8* nonnull %6) #6
  %7 = call i32 (i8*, ...) bitcast (i32 (...)* @gets to i32 (i8*, ...)*)(i8* nonnull %4) #6
  %8 = call i32 (i8*, ...) bitcast (i32 (...)* @gets to i32 (i8*, ...)*)(i8* nonnull %5) #6
  %9 = call i32 (i8*, ...) bitcast (i32 (...)* @gets to i32 (i8*, ...)*)(i8* nonnull %6) #6
  %10 = call i64 @strlen(i8* noundef nonnull %4) #7
  %11 = icmp eq i64 %10, 0
  br i1 %11, label %12, label %13

12:                                               ; preds = %66, %0
  call void @llvm.lifetime.end.p0i8(i64 100, i8* nonnull %6) #6
  call void @llvm.lifetime.end.p0i8(i64 100, i8* nonnull %5) #6
  call void @llvm.lifetime.end.p0i8(i64 100, i8* nonnull %4) #6
  ret i32 0

13:                                               ; preds = %0, %66
  %14 = phi i64 [ %70, %66 ], [ %10, %0 ]
  %15 = phi i64 [ %69, %66 ], [ 0, %0 ]
  %16 = phi i32 [ %68, %66 ], [ 0, %0 ]
  %17 = getelementptr inbounds [100 x i8], [100 x i8]* %1, i64 0, i64 %15
  %18 = load i8, i8* %17, align 1, !tbaa !5
  %19 = load i8, i8* %5, align 16, !tbaa !5
  %20 = icmp eq i8 %18, %19
  br i1 %20, label %21, label %60

21:                                               ; preds = %13
  %22 = add nsw i32 %16, -1
  %23 = sext i32 %22 to i64
  %24 = getelementptr inbounds [100 x i8], [100 x i8]* %1, i64 0, i64 %23
  %25 = load i8, i8* %24, align 1, !tbaa !5
  %26 = icmp eq i8 %25, 32
  %27 = icmp eq i32 %16, 0
  %28 = select i1 %26, i1 true, i1 %27
  br i1 %28, label %29, label %60

29:                                               ; preds = %21
  %30 = call i64 @strlen(i8* noundef nonnull %5) #7
  %31 = add i64 %30, %15
  %32 = getelementptr inbounds [100 x i8], [100 x i8]* %1, i64 0, i64 %31
  %33 = load i8, i8* %32, align 1, !tbaa !5
  %34 = icmp eq i8 %33, 32
  %35 = icmp eq i64 %31, %14
  %36 = select i1 %34, i1 true, i1 %35
  br i1 %36, label %37, label %60

37:                                               ; preds = %29
  %38 = icmp eq i64 %30, 0
  br i1 %38, label %55, label %39

39:                                               ; preds = %37
  %40 = sext i32 %16 to i64
  %41 = getelementptr inbounds [100 x i8], [100 x i8]* %1, i64 0, i64 %40
  %42 = load i8, i8* %41, align 1, !tbaa !5
  %43 = icmp eq i8 %42, %18
  br i1 %43, label %44, label %60

44:                                               ; preds = %39, %47
  %45 = phi i64 [ %54, %47 ], [ 1, %39 ]
  %46 = icmp eq i64 %45, %30
  br i1 %46, label %55, label %47, !llvm.loop !8

47:                                               ; preds = %44
  %48 = getelementptr inbounds [100 x i8], [100 x i8]* %2, i64 0, i64 %45
  %49 = load i8, i8* %48, align 1, !tbaa !5
  %50 = add nsw i64 %45, %40
  %51 = getelementptr inbounds [100 x i8], [100 x i8]* %1, i64 0, i64 %50
  %52 = load i8, i8* %51, align 1, !tbaa !5
  %53 = icmp eq i8 %52, %49
  %54 = add nuw i64 %45, 1
  br i1 %53, label %44, label %60

55:                                               ; preds = %44, %37
  %56 = call i32 (i8*, ...) @printf(i8* nonnull dereferenceable(1) getelementptr inbounds ([3 x i8], [3 x i8]* @.str, i64 0, i64 0), i8* nonnull %6)
  %57 = call i64 @strlen(i8* noundef nonnull %5) #7
  %58 = trunc i64 %57 to i32
  %59 = add i32 %22, %58
  br label %66

60:                                               ; preds = %47, %39, %29, %21, %13
  %61 = sext i32 %16 to i64
  %62 = getelementptr inbounds [100 x i8], [100 x i8]* %1, i64 0, i64 %61
  %63 = load i8, i8* %62, align 1, !tbaa !5
  %64 = sext i8 %63 to i32
  %65 = call i32 @putchar(i32 %64)
  br label %66

66:                                               ; preds = %55, %60
  %67 = phi i32 [ %16, %60 ], [ %59, %55 ]
  %68 = add nsw i32 %67, 1
  %69 = sext i32 %68 to i64
  %70 = call i64 @strlen(i8* noundef nonnull %4) #7
  %71 = icmp ugt i64 %70, %69
  br i1 %71, label %13, label %12, !llvm.loop !10
}

; Function Attrs: argmemonly mustprogress nofree nosync nounwind willreturn
declare void @llvm.lifetime.start.p0i8(i64 immarg, i8* nocapture) #1

declare i32 @gets(...) local_unnamed_addr #2

; Function Attrs: argmemonly mustprogress nofree nounwind readonly willreturn
declare i64 @strlen(i8* nocapture) local_unnamed_addr #3

; Function Attrs: argmemonly mustprogress nofree nosync nounwind willreturn
declare void @llvm.lifetime.end.p0i8(i64 immarg, i8* nocapture) #1

; Function Attrs: nofree nounwind
declare noundef i32 @printf(i8* nocapture noundef readonly, ...) local_unnamed_addr #4

; Function Attrs: nofree nounwind
declare noundef i32 @putchar(i32 noundef) local_unnamed_addr #5


!llvm.module.flags = !{!0, !1, !2, !3}
!llvm.ident = !{!4}

!0 = !{i32 1, !"wchar_size", i32 4}
!1 = !{i32 7, !"PIC Level", i32 2}
!2 = !{i32 7, !"PIE Level", i32 2}
!3 = !{i32 7, !"uwtable", i32 1}
!4 = !{!"clang version 13.0.0"}
!5 = !{!6, !6, i64 0}
!6 = !{!"omnipotent char", !7, i64 0}
!7 = !{!"Simple C/C++ TBAA"}
!8 = distinct !{!8, !9}
!9 = !{!"llvm.loop.mustprogress"}
!10 = distinct !{!10, !9}
